target datalayout = "e-m:e-p270:32:32-p271:32:32-p272:64:64-i64:64-i128:128-f80:128-n8:16:32:64-S128"
target triple = "x86_64-pc-linux-gnu"

@log_parser_stats = external global i8, align 1
@log_planner_stats = external global i8, align 1
@GUC_check_errdetail_string = external global ptr, align 8
@log_executor_stats = external global i8, align 1
@.str.36 = private unnamed_addr constant [115 x i8] c"Cannot enable \22log_statement_stats\22 when \22log_parser_stats\22, \22log_planner_stats\22, or \22log_executor_stats\22 is true.\00", align 1

; Function Attrs: nounwind uwtable
define dso_local zeroext i1 @check_log_stats(ptr noundef %0, ptr noundef %1, i32 noundef %2) #0 {
  %4 = alloca i1, align 1
  %5 = alloca ptr, align 8
  %6 = alloca ptr, align 8
  %7 = alloca i32, align 4
  store ptr %0, ptr %5, align 8
  store ptr %1, ptr %6, align 8
  store i32 %2, ptr %7, align 4
  %8 = load ptr, ptr %5, align 8
  %9 = load i8, ptr %8, align 1, !range !4, !noundef !5
  %10 = trunc i8 %9 to i1
  br i1 %10, label %11, label %24

11:                                               ; preds = %3
  %12 = load i8, ptr @log_parser_stats, align 1, !range !4, !noundef !5
  %13 = trunc i8 %12 to i1
  br i1 %13, label %20, label %14

14:                                               ; preds = %11
  %15 = load i8, ptr @log_planner_stats, align 1, !range !4, !noundef !5
  %16 = trunc i8 %15 to i1
  br i1 %16, label %20, label %17

17:                                               ; preds = %14
  %18 = load i8, ptr @log_executor_stats, align 1, !range !4, !noundef !5
  %19 = trunc i8 %18 to i1
  br i1 %19, label %20, label %24

20:                                               ; preds = %17, %14, %11
  %21 = call ptr @__errno_location() #17
  %22 = load i32, ptr %21, align 4
  call void @pre_format_elog_string(i32 noundef %22, ptr noundef null)
  %23 = call ptr (ptr, ...) @format_elog_string(ptr noundef @.str.36)
  store ptr %23, ptr @GUC_check_errdetail_string, align 8
  store i1 false, ptr %4, align 1
  br label %25

24:                                               ; preds = %17, %3
  store i1 true, ptr %4, align 1
  br label %25

25:                                               ; preds = %24, %20
  %26 = load i1, ptr %4, align 1
  ret i1 %26
}