; Function Attrs: nounwind uwtable
define dso_local noundef zeroext i1 @check_log_stats(ptr noundef readonly captures(none) %0, ptr noundef readnone captures(none) %1, i32 noundef %2) local_unnamed_addr #0 {
  %4 = load i8, ptr %0, align 1, !range !5, !noundef !6
  %5 = trunc nuw i8 %4 to i1
  br i1 %5, label %6, label %19

6:                                                ; preds = %3
  %7 = load i8, ptr @log_parser_stats, align 1, !range !5, !noundef !6
  %8 = trunc nuw i8 %7 to i1
  br i1 %8, label %15, label %9

9:                                                ; preds = %6
  %10 = load i8, ptr @log_planner_stats, align 1, !range !5, !noundef !6
  %11 = trunc nuw i8 %10 to i1
  br i1 %11, label %15, label %12

12:                                               ; preds = %9
  %13 = load i8, ptr @log_executor_stats, align 1, !range !5, !noundef !6
  %14 = trunc nuw i8 %13 to i1
  br i1 %14, label %15, label %19

15:                                               ; preds = %12, %9, %6
  %16 = tail call ptr @__errno_location() #21
  %17 = load i32, ptr %16, align 4
  tail call void @pre_format_elog_string(i32 noundef %17, ptr noundef null) #22
  %18 = tail call ptr (ptr, ...) @format_elog_string(ptr noundef nonnull @.str.36) #22
  store ptr %18, ptr @GUC_check_errdetail_string, align 8
  br label %19

19:                                               ; preds = %3, %12, %15
  %.0 = phi i1 [ false, %15 ], [ true, %12 ], [ true, %3 ]
  ret i1 %.0
}